
hello.out:     file format elf64-x86-64


Disassembly of section .init:

0000000000001000 <_init>:
    1000:	f3 0f 1e fa          	endbr64 
    1004:	48 83 ec 08          	sub    $0x8,%rsp
    1008:	48 8b 05 d9 2f 00 00 	mov    0x2fd9(%rip),%rax        # 3fe8 <__gmon_start__@Base>
    100f:	48 85 c0             	test   %rax,%rax
    1012:	74 02                	je     1016 <_init+0x16>
    1014:	ff d0                	call   *%rax
    1016:	48 83 c4 08          	add    $0x8,%rsp
    101a:	c3                   	ret    

Disassembly of section .plt:

0000000000001020 <.plt>:
    1020:	ff 35 6a 2f 00 00    	push   0x2f6a(%rip)        # 3f90 <_GLOBAL_OFFSET_TABLE_+0x8>
    1026:	f2 ff 25 6b 2f 00 00 	bnd jmp *0x2f6b(%rip)        # 3f98 <_GLOBAL_OFFSET_TABLE_+0x10>
    102d:	0f 1f 00             	nopl   (%rax)
    1030:	f3 0f 1e fa          	endbr64 
    1034:	68 00 00 00 00       	push   $0x0
    1039:	f2 e9 e1 ff ff ff    	bnd jmp 1020 <_init+0x20>
    103f:	90                   	nop
    1040:	f3 0f 1e fa          	endbr64 
    1044:	68 01 00 00 00       	push   $0x1
    1049:	f2 e9 d1 ff ff ff    	bnd jmp 1020 <_init+0x20>
    104f:	90                   	nop
    1050:	f3 0f 1e fa          	endbr64 
    1054:	68 02 00 00 00       	push   $0x2
    1059:	f2 e9 c1 ff ff ff    	bnd jmp 1020 <_init+0x20>
    105f:	90                   	nop
    1060:	f3 0f 1e fa          	endbr64 
    1064:	68 03 00 00 00       	push   $0x3
    1069:	f2 e9 b1 ff ff ff    	bnd jmp 1020 <_init+0x20>
    106f:	90                   	nop
    1070:	f3 0f 1e fa          	endbr64 
    1074:	68 04 00 00 00       	push   $0x4
    1079:	f2 e9 a1 ff ff ff    	bnd jmp 1020 <_init+0x20>
    107f:	90                   	nop
    1080:	f3 0f 1e fa          	endbr64 
    1084:	68 05 00 00 00       	push   $0x5
    1089:	f2 e9 91 ff ff ff    	bnd jmp 1020 <_init+0x20>
    108f:	90                   	nop
    1090:	f3 0f 1e fa          	endbr64 
    1094:	68 06 00 00 00       	push   $0x6
    1099:	f2 e9 81 ff ff ff    	bnd jmp 1020 <_init+0x20>
    109f:	90                   	nop

Disassembly of section .plt.got:

00000000000010a0 <__cxa_finalize@plt>:
    10a0:	f3 0f 1e fa          	endbr64 
    10a4:	f2 ff 25 4d 2f 00 00 	bnd jmp *0x2f4d(%rip)        # 3ff8 <__cxa_finalize@GLIBC_2.2.5>
    10ab:	0f 1f 44 00 00       	nopl   0x0(%rax,%rax,1)

Disassembly of section .plt.sec:

00000000000010b0 <puts@plt>:
    10b0:	f3 0f 1e fa          	endbr64 
    10b4:	f2 ff 25 e5 2e 00 00 	bnd jmp *0x2ee5(%rip)        # 3fa0 <puts@GLIBC_2.2.5>
    10bb:	0f 1f 44 00 00       	nopl   0x0(%rax,%rax,1)

00000000000010c0 <__stack_chk_fail@plt>:
    10c0:	f3 0f 1e fa          	endbr64 
    10c4:	f2 ff 25 dd 2e 00 00 	bnd jmp *0x2edd(%rip)        # 3fa8 <__stack_chk_fail@GLIBC_2.4>
    10cb:	0f 1f 44 00 00       	nopl   0x0(%rax,%rax,1)

00000000000010d0 <printf@plt>:
    10d0:	f3 0f 1e fa          	endbr64 
    10d4:	f2 ff 25 d5 2e 00 00 	bnd jmp *0x2ed5(%rip)        # 3fb0 <printf@GLIBC_2.2.5>
    10db:	0f 1f 44 00 00       	nopl   0x0(%rax,%rax,1)

00000000000010e0 <srand@plt>:
    10e0:	f3 0f 1e fa          	endbr64 
    10e4:	f2 ff 25 cd 2e 00 00 	bnd jmp *0x2ecd(%rip)        # 3fb8 <srand@GLIBC_2.2.5>
    10eb:	0f 1f 44 00 00       	nopl   0x0(%rax,%rax,1)

00000000000010f0 <time@plt>:
    10f0:	f3 0f 1e fa          	endbr64 
    10f4:	f2 ff 25 c5 2e 00 00 	bnd jmp *0x2ec5(%rip)        # 3fc0 <time@GLIBC_2.2.5>
    10fb:	0f 1f 44 00 00       	nopl   0x0(%rax,%rax,1)

0000000000001100 <sqrt@plt>:
    1100:	f3 0f 1e fa          	endbr64 
    1104:	f2 ff 25 bd 2e 00 00 	bnd jmp *0x2ebd(%rip)        # 3fc8 <sqrt@GLIBC_2.2.5>
    110b:	0f 1f 44 00 00       	nopl   0x0(%rax,%rax,1)

0000000000001110 <rand@plt>:
    1110:	f3 0f 1e fa          	endbr64 
    1114:	f2 ff 25 b5 2e 00 00 	bnd jmp *0x2eb5(%rip)        # 3fd0 <rand@GLIBC_2.2.5>
    111b:	0f 1f 44 00 00       	nopl   0x0(%rax,%rax,1)

Disassembly of section .text:

0000000000001120 <_start>:
    1120:	f3 0f 1e fa          	endbr64 
    1124:	31 ed                	xor    %ebp,%ebp
    1126:	49 89 d1             	mov    %rdx,%r9
    1129:	5e                   	pop    %rsi
    112a:	48 89 e2             	mov    %rsp,%rdx
    112d:	48 83 e4 f0          	and    $0xfffffffffffffff0,%rsp
    1131:	50                   	push   %rax
    1132:	54                   	push   %rsp
    1133:	45 31 c0             	xor    %r8d,%r8d
    1136:	31 c9                	xor    %ecx,%ecx
    1138:	48 8d 3d ca 00 00 00 	lea    0xca(%rip),%rdi        # 1209 <main>
    113f:	ff 15 93 2e 00 00    	call   *0x2e93(%rip)        # 3fd8 <__libc_start_main@GLIBC_2.34>
    1145:	f4                   	hlt    
    1146:	66 2e 0f 1f 84 00 00 	cs nopw 0x0(%rax,%rax,1)
    114d:	00 00 00 

0000000000001150 <deregister_tm_clones>:
    1150:	48 8d 3d b9 2e 00 00 	lea    0x2eb9(%rip),%rdi        # 4010 <__TMC_END__>
    1157:	48 8d 05 b2 2e 00 00 	lea    0x2eb2(%rip),%rax        # 4010 <__TMC_END__>
    115e:	48 39 f8             	cmp    %rdi,%rax
    1161:	74 15                	je     1178 <deregister_tm_clones+0x28>
    1163:	48 8b 05 76 2e 00 00 	mov    0x2e76(%rip),%rax        # 3fe0 <_ITM_deregisterTMCloneTable@Base>
    116a:	48 85 c0             	test   %rax,%rax
    116d:	74 09                	je     1178 <deregister_tm_clones+0x28>
    116f:	ff e0                	jmp    *%rax
    1171:	0f 1f 80 00 00 00 00 	nopl   0x0(%rax)
    1178:	c3                   	ret    
    1179:	0f 1f 80 00 00 00 00 	nopl   0x0(%rax)

0000000000001180 <register_tm_clones>:
    1180:	48 8d 3d 89 2e 00 00 	lea    0x2e89(%rip),%rdi        # 4010 <__TMC_END__>
    1187:	48 8d 35 82 2e 00 00 	lea    0x2e82(%rip),%rsi        # 4010 <__TMC_END__>
    118e:	48 29 fe             	sub    %rdi,%rsi
    1191:	48 89 f0             	mov    %rsi,%rax
    1194:	48 c1 ee 3f          	shr    $0x3f,%rsi
    1198:	48 c1 f8 03          	sar    $0x3,%rax
    119c:	48 01 c6             	add    %rax,%rsi
    119f:	48 d1 fe             	sar    %rsi
    11a2:	74 14                	je     11b8 <register_tm_clones+0x38>
    11a4:	48 8b 05 45 2e 00 00 	mov    0x2e45(%rip),%rax        # 3ff0 <_ITM_registerTMCloneTable@Base>
    11ab:	48 85 c0             	test   %rax,%rax
    11ae:	74 08                	je     11b8 <register_tm_clones+0x38>
    11b0:	ff e0                	jmp    *%rax
    11b2:	66 0f 1f 44 00 00    	nopw   0x0(%rax,%rax,1)
    11b8:	c3                   	ret    
    11b9:	0f 1f 80 00 00 00 00 	nopl   0x0(%rax)

00000000000011c0 <__do_global_dtors_aux>:
    11c0:	f3 0f 1e fa          	endbr64 
    11c4:	80 3d 45 2e 00 00 00 	cmpb   $0x0,0x2e45(%rip)        # 4010 <__TMC_END__>
    11cb:	75 2b                	jne    11f8 <__do_global_dtors_aux+0x38>
    11cd:	55                   	push   %rbp
    11ce:	48 83 3d 22 2e 00 00 	cmpq   $0x0,0x2e22(%rip)        # 3ff8 <__cxa_finalize@GLIBC_2.2.5>
    11d5:	00 
    11d6:	48 89 e5             	mov    %rsp,%rbp
    11d9:	74 0c                	je     11e7 <__do_global_dtors_aux+0x27>
    11db:	48 8b 3d 26 2e 00 00 	mov    0x2e26(%rip),%rdi        # 4008 <__dso_handle>
    11e2:	e8 b9 fe ff ff       	call   10a0 <__cxa_finalize@plt>
    11e7:	e8 64 ff ff ff       	call   1150 <deregister_tm_clones>
    11ec:	c6 05 1d 2e 00 00 01 	movb   $0x1,0x2e1d(%rip)        # 4010 <__TMC_END__>
    11f3:	5d                   	pop    %rbp
    11f4:	c3                   	ret    
    11f5:	0f 1f 00             	nopl   (%rax)
    11f8:	c3                   	ret    
    11f9:	0f 1f 80 00 00 00 00 	nopl   0x0(%rax)

0000000000001200 <frame_dummy>:
    1200:	f3 0f 1e fa          	endbr64 
    1204:	e9 77 ff ff ff       	jmp    1180 <register_tm_clones>

0000000000001209 <main>:
    1209:	f3 0f 1e fa          	endbr64 
    120d:	55                   	push   %rbp
    120e:	48 89 e5             	mov    %rsp,%rbp
    1211:	48 83 ec 20          	sub    $0x20,%rsp
    1215:	64 48 8b 04 25 28 00 	mov    %fs:0x28,%rax
    121c:	00 00 
    121e:	48 89 45 f8          	mov    %rax,-0x8(%rbp)
    1222:	31 c0                	xor    %eax,%eax
    1224:	48 8d 05 d9 0d 00 00 	lea    0xdd9(%rip),%rax        # 2004 <_IO_stdin_used+0x4>
    122b:	48 89 c7             	mov    %rax,%rdi
    122e:	e8 7d fe ff ff       	call   10b0 <puts@plt>
    1233:	48 8d 45 e8          	lea    -0x18(%rbp),%rax
    1237:	48 89 c7             	mov    %rax,%rdi
    123a:	e8 b1 fe ff ff       	call   10f0 <time@plt>
    123f:	89 c7                	mov    %eax,%edi
    1241:	e8 9a fe ff ff       	call   10e0 <srand@plt>
    1246:	e8 c5 fe ff ff       	call   1110 <rand@plt>
    124b:	89 45 e4             	mov    %eax,-0x1c(%rbp)
    124e:	66 0f ef c9          	pxor   %xmm1,%xmm1
    1252:	f2 0f 2a 4d e4       	cvtsi2sdl -0x1c(%rbp),%xmm1
    1257:	66 48 0f 7e c8       	movq   %xmm1,%rax
    125c:	66 48 0f 6e c0       	movq   %rax,%xmm0
    1261:	e8 9a fe ff ff       	call   1100 <sqrt@plt>
    1266:	66 48 0f 7e c0       	movq   %xmm0,%rax
    126b:	48 89 45 f0          	mov    %rax,-0x10(%rbp)
    126f:	48 8b 55 f0          	mov    -0x10(%rbp),%rdx
    1273:	8b 45 e4             	mov    -0x1c(%rbp),%eax
    1276:	66 48 0f 6e c2       	movq   %rdx,%xmm0
    127b:	89 c6                	mov    %eax,%esi
    127d:	48 8d 05 8d 0d 00 00 	lea    0xd8d(%rip),%rax        # 2011 <_IO_stdin_used+0x11>
    1284:	48 89 c7             	mov    %rax,%rdi
    1287:	b8 01 00 00 00       	mov    $0x1,%eax
    128c:	e8 3f fe ff ff       	call   10d0 <printf@plt>
    1291:	b8 00 00 00 00       	mov    $0x0,%eax
    1296:	48 8b 55 f8          	mov    -0x8(%rbp),%rdx
    129a:	64 48 2b 14 25 28 00 	sub    %fs:0x28,%rdx
    12a1:	00 00 
    12a3:	74 05                	je     12aa <main+0xa1>
    12a5:	e8 16 fe ff ff       	call   10c0 <__stack_chk_fail@plt>
    12aa:	c9                   	leave  
    12ab:	c3                   	ret    

Disassembly of section .fini:

00000000000012ac <_fini>:
    12ac:	f3 0f 1e fa          	endbr64 
    12b0:	48 83 ec 08          	sub    $0x8,%rsp
    12b4:	48 83 c4 08          	add    $0x8,%rsp
    12b8:	c3                   	ret    
